; ModuleID = '10/1455.c'
source_filename = "10/1455.c"
target datalayout = "e-m:e-p270:32:32-p271:32:32-p272:64:64-i64:64-f80:128-n8:16:32:64-S128"
target triple = "x86_64-pc-linux-gnu"

@.str = private unnamed_addr constant [3 x i8] c"%d\00", align 1

; Function Attrs: noinline nounwind uwtable
define dso_local i32 @main() #0 {
  %1 = alloca i32, align 4
  %2 = alloca i32, align 4
  %3 = alloca [25 x i32], align 16
  %4 = alloca i32, align 4
  %5 = alloca i32, align 4
  %6 = alloca i32, align 4
  %7 = alloca i32, align 4
  %8 = alloca i32, align 4
  %9 = alloca [25 x i32], align 16
  store i32 0, i32* %1, align 4
  %10 = bitcast [25 x i32]* %9 to i8*
  call void @llvm.memset.p0i8.i64(i8* align 16 %10, i8 0, i64 100, i1 false)
  %11 = call i32 (i8*, ...) @__isoc99_scanf(i8* getelementptr inbounds ([3 x i8], [3 x i8]* @.str, i64 0, i64 0), i32* %2)
  store i32 0, i32* %4, align 4
  br label %12

12:                                               ; preds = %21, %0
  %13 = load i32, i32* %4, align 4
  %14 = load i32, i32* %2, align 4
  %15 = icmp slt i32 %13, %14
  br i1 %15, label %16, label %24

16:                                               ; preds = %12
  %17 = load i32, i32* %4, align 4
  %18 = sext i32 %17 to i64
  %19 = getelementptr inbounds [25 x i32], [25 x i32]* %3, i64 0, i64 %18
  %20 = call i32 (i8*, ...) @__isoc99_scanf(i8* getelementptr inbounds ([3 x i8], [3 x i8]* @.str, i64 0, i64 0), i32* %19)
  br label %21

21:                                               ; preds = %16
  %22 = load i32, i32* %4, align 4
  %23 = add nsw i32 %22, 1
  store i32 %23, i32* %4, align 4
  br label %12

24:                                               ; preds = %12
  %25 = load i32, i32* %2, align 4
  %26 = sub nsw i32 %25, 1
  store i32 %26, i32* %5, align 4
  br label %27

27:                                               ; preds = %90, %24
  %28 = load i32, i32* %5, align 4
  %29 = icmp sge i32 %28, 0
  br i1 %29, label %30, label %93

30:                                               ; preds = %27
  %31 = load i32, i32* %2, align 4
  %32 = sub nsw i32 %31, 1
  store i32 %32, i32* %6, align 4
  br label %33

33:                                               ; preds = %86, %30
  %34 = load i32, i32* %6, align 4
  %35 = load i32, i32* %5, align 4
  %36 = icmp sge i32 %34, %35
  br i1 %36, label %37, label %89

37:                                               ; preds = %33
  %38 = load i32, i32* %6, align 4
  %39 = load i32, i32* %5, align 4
  %40 = icmp ne i32 %38, %39
  br i1 %40, label %41, label %71

41:                                               ; preds = %37
  %42 = load i32, i32* %5, align 4
  %43 = sext i32 %42 to i64
  %44 = getelementptr inbounds [25 x i32], [25 x i32]* %3, i64 0, i64 %43
  %45 = load i32, i32* %44, align 4
  %46 = load i32, i32* %6, align 4
  %47 = sext i32 %46 to i64
  %48 = getelementptr inbounds [25 x i32], [25 x i32]* %3, i64 0, i64 %47
  %49 = load i32, i32* %48, align 4
  %50 = icmp sge i32 %45, %49
  br i1 %50, label %51, label %70

51:                                               ; preds = %41
  %52 = load i32, i32* %5, align 4
  %53 = sext i32 %52 to i64
  %54 = getelementptr inbounds [25 x i32], [25 x i32]* %9, i64 0, i64 %53
  %55 = load i32, i32* %54, align 4
  %56 = load i32, i32* %6, align 4
  %57 = sext i32 %56 to i64
  %58 = getelementptr inbounds [25 x i32], [25 x i32]* %9, i64 0, i64 %57
  %59 = load i32, i32* %58, align 4
  %60 = sub nsw i32 %59, 1
  %61 = icmp eq i32 %55, %60
  br i1 %61, label %62, label %70

62:                                               ; preds = %51
  %63 = load i32, i32* %6, align 4
  %64 = sext i32 %63 to i64
  %65 = getelementptr inbounds [25 x i32], [25 x i32]* %9, i64 0, i64 %64
  %66 = load i32, i32* %65, align 4
  %67 = load i32, i32* %5, align 4
  %68 = sext i32 %67 to i64
  %69 = getelementptr inbounds [25 x i32], [25 x i32]* %9, i64 0, i64 %68
  store i32 %66, i32* %69, align 4
  br label %70

70:                                               ; preds = %62, %51, %41
  br label %85

71:                                               ; preds = %37
  %72 = load i32, i32* %6, align 4
  %73 = load i32, i32* %5, align 4
  %74 = icmp eq i32 %72, %73
  br i1 %74, label %75, label %84

75:                                               ; preds = %71
  %76 = load i32, i32* %5, align 4
  %77 = sext i32 %76 to i64
  %78 = getelementptr inbounds [25 x i32], [25 x i32]* %9, i64 0, i64 %77
  %79 = load i32, i32* %78, align 4
  %80 = add nsw i32 %79, 1
  %81 = load i32, i32* %5, align 4
  %82 = sext i32 %81 to i64
  %83 = getelementptr inbounds [25 x i32], [25 x i32]* %9, i64 0, i64 %82
  store i32 %80, i32* %83, align 4
  br label %84

84:                                               ; preds = %75, %71
  br label %85

85:                                               ; preds = %84, %70
  br label %86

86:                                               ; preds = %85
  %87 = load i32, i32* %6, align 4
  %88 = add nsw i32 %87, -1
  store i32 %88, i32* %6, align 4
  br label %33

89:                                               ; preds = %33
  br label %90

90:                                               ; preds = %89
  %91 = load i32, i32* %5, align 4
  %92 = add nsw i32 %91, -1
  store i32 %92, i32* %5, align 4
  br label %27

93:                                               ; preds = %27
  store i32 1, i32* %7, align 4
  br label %94

94:                                               ; preds = %120, %93
  %95 = load i32, i32* %7, align 4
  %96 = load i32, i32* %2, align 4
  %97 = sub nsw i32 %96, 1
  %98 = icmp sle i32 %95, %97
  br i1 %98, label %99, label %123

99:                                               ; preds = %94
  %100 = getelementptr inbounds [25 x i32], [25 x i32]* %9, i64 0, i64 0
  %101 = load i32, i32* %100, align 16
  %102 = load i32, i32* %7, align 4
  %103 = sext i32 %102 to i64
  %104 = getelementptr inbounds [25 x i32], [25 x i32]* %9, i64 0, i64 %103
  %105 = load i32, i32* %104, align 4
  %106 = icmp slt i32 %101, %105
  br i1 %106, label %107, label %119

107:                                              ; preds = %99
  %108 = getelementptr inbounds [25 x i32], [25 x i32]* %9, i64 0, i64 0
  %109 = load i32, i32* %108, align 16
  store i32 %109, i32* %8, align 4
  %110 = load i32, i32* %7, align 4
  %111 = sext i32 %110 to i64
  %112 = getelementptr inbounds [25 x i32], [25 x i32]* %9, i64 0, i64 %111
  %113 = load i32, i32* %112, align 4
  %114 = getelementptr inbounds [25 x i32], [25 x i32]* %9, i64 0, i64 0
  store i32 %113, i32* %114, align 16
  %115 = load i32, i32* %8, align 4
  %116 = load i32, i32* %7, align 4
  %117 = sext i32 %116 to i64
  %118 = getelementptr inbounds [25 x i32], [25 x i32]* %9, i64 0, i64 %117
  store i32 %115, i32* %118, align 4
  br label %119

119:                                              ; preds = %107, %99
  br label %120

120:                                              ; preds = %119
  %121 = load i32, i32* %7, align 4
  %122 = add nsw i32 %121, 1
  store i32 %122, i32* %7, align 4
  br label %94

123:                                              ; preds = %94
  %124 = getelementptr inbounds [25 x i32], [25 x i32]* %9, i64 0, i64 0
  %125 = load i32, i32* %124, align 16
  %126 = call i32 (i8*, ...) @printf(i8* getelementptr inbounds ([3 x i8], [3 x i8]* @.str, i64 0, i64 0), i32 %125)
  %127 = load i32, i32* %1, align 4
  ret i32 %127
}

; Function Attrs: argmemonly nounwind willreturn
declare void @llvm.memset.p0i8.i64(i8* nocapture writeonly, i8, i64, i1 immarg) #1

declare dso_local i32 @__isoc99_scanf(i8*, ...) #2

declare dso_local i32 @printf(i8*, ...) #2


!llvm.module.flags = !{!0}
!llvm.ident = !{!1}

!0 = !{i32 1, !"wchar_size", i32 4}
!1 = !{!"clang version 10.0.0-4ubuntu1 "}
